target datalayout = "e-m:e-p270:32:32-p271:32:32-p272:64:64-i64:64-i128:128-f80:128-n8:16:32:64-S128"
target triple = "x86_64-pc-linux-gnu"

; Function Attrs: nounwind uwtable
define internal void @scatter_partial_double_4(ptr noundef %0, ptr noundef %1, i64 noundef %2, i64 noundef %3, i64 noundef %4, i64 noundef %5, i64 noundef %6, i64 noundef %7, i64 noundef %8, i64 noundef %9) #0 {
  %11 = alloca ptr, align 8
  %12 = alloca ptr, align 8
  %13 = alloca i64, align 8
  %14 = alloca i64, align 8
  %15 = alloca i64, align 8
  %16 = alloca i64, align 8
  %17 = alloca i64, align 8
  %18 = alloca i64, align 8
  %19 = alloca i64, align 8
  %20 = alloca i64, align 8
  %21 = alloca i64, align 8
  %22 = alloca i64, align 8
  %23 = alloca i64, align 8
  %24 = alloca i64, align 8
  store ptr %0, ptr %11, align 8, !tbaa !8
  store ptr %1, ptr %12, align 8, !tbaa !8
  store i64 %2, ptr %13, align 8, !tbaa !29
  store i64 %3, ptr %14, align 8, !tbaa !29
  store i64 %4, ptr %15, align 8, !tbaa !29
  store i64 %5, ptr %16, align 8, !tbaa !29
  store i64 %6, ptr %17, align 8, !tbaa !29
  store i64 %7, ptr %18, align 8, !tbaa !29
  store i64 %8, ptr %19, align 8, !tbaa !29
  store i64 %9, ptr %20, align 8, !tbaa !29
  call void @llvm.lifetime.start.p0(i64 8, ptr %21) #5
  call void @llvm.lifetime.start.p0(i64 8, ptr %22) #5
  call void @llvm.lifetime.start.p0(i64 8, ptr %23) #5
  call void @llvm.lifetime.start.p0(i64 8, ptr %24) #5
  store i64 0, ptr %24, align 8, !tbaa !29
  br label %25

25:                                               ; preds = %89, %10
  %26 = load i64, ptr %24, align 8, !tbaa !29
  %27 = load i64, ptr %16, align 8, !tbaa !29
  %28 = icmp ult i64 %26, %27
  br i1 %28, label %29, label %104

29:                                               ; preds = %25
  store i64 0, ptr %23, align 8, !tbaa !29
  br label %30

30:                                               ; preds = %73, %29
  %31 = load i64, ptr %23, align 8, !tbaa !29
  %32 = load i64, ptr %15, align 8, !tbaa !29
  %33 = icmp ult i64 %31, %32
  br i1 %33, label %34, label %88

34:                                               ; preds = %30
  store i64 0, ptr %22, align 8, !tbaa !29
  br label %35

35:                                               ; preds = %57, %34
  %36 = load i64, ptr %22, align 8, !tbaa !29
  %37 = load i64, ptr %14, align 8, !tbaa !29
  %38 = icmp ult i64 %36, %37
  br i1 %38, label %39, label %72

39:                                               ; preds = %35
  store i64 0, ptr %21, align 8, !tbaa !29
  br label %40

40:                                               ; preds = %48, %39
  %41 = load i64, ptr %21, align 8, !tbaa !29
  %42 = load i64, ptr %13, align 8, !tbaa !29
  %43 = icmp ult i64 %41, %42
  br i1 %43, label %44, label %56

44:                                               ; preds = %40
  %45 = load ptr, ptr %11, align 8, !tbaa !8
  %46 = load double, ptr %45, align 8, !tbaa !19
  %47 = load ptr, ptr %12, align 8, !tbaa !8
  store double %46, ptr %47, align 8, !tbaa !19
  br label %48

48:                                               ; preds = %44
  %49 = load i64, ptr %21, align 8, !tbaa !29
  %50 = add i64 %49, 1
  store i64 %50, ptr %21, align 8, !tbaa !29
  %51 = load i64, ptr %17, align 8, !tbaa !29
  %52 = load ptr, ptr %12, align 8, !tbaa !8
  %53 = getelementptr inbounds double, ptr %52, i64 %51
  store ptr %53, ptr %12, align 8, !tbaa !8
  %54 = load ptr, ptr %11, align 8, !tbaa !8
  %55 = getelementptr inbounds nuw double, ptr %54, i32 1
  store ptr %55, ptr %11, align 8, !tbaa !8
  br label %40

56:                                               ; preds = %40
  br label %57

57:                                               ; preds = %56
  %58 = load i64, ptr %22, align 8, !tbaa !29
  %59 = add i64 %58, 1
  store i64 %59, ptr %22, align 8, !tbaa !29
  %60 = load i64, ptr %18, align 8, !tbaa !29
  %61 = load i64, ptr %13, align 8, !tbaa !29
  %62 = load i64, ptr %17, align 8, !tbaa !29
  %63 = mul nsw i64 %61, %62
  %64 = sub nsw i64 %60, %63
  %65 = load ptr, ptr %12, align 8, !tbaa !8
  %66 = getelementptr inbounds double, ptr %65, i64 %64
  store ptr %66, ptr %12, align 8, !tbaa !8
  %67 = load i64, ptr %13, align 8, !tbaa !29
  %68 = sub i64 4, %67
  %69 = mul i64 1, %68
  %70 = load ptr, ptr %11, align 8, !tbaa !8
  %71 = getelementptr inbounds nuw double, ptr %70, i64 %69
  store ptr %71, ptr %11, align 8, !tbaa !8
  br label %35

72:                                               ; preds = %35
  br label %73

73:                                               ; preds = %72
  %74 = load i64, ptr %23, align 8, !tbaa !29
  %75 = add i64 %74, 1
  store i64 %75, ptr %23, align 8, !tbaa !29
  %76 = load i64, ptr %19, align 8, !tbaa !29
  %77 = load i64, ptr %14, align 8, !tbaa !29
  %78 = load i64, ptr %18, align 8, !tbaa !29
  %79 = mul nsw i64 %77, %78
  %80 = sub nsw i64 %76, %79
  %81 = load ptr, ptr %12, align 8, !tbaa !8
  %82 = getelementptr inbounds double, ptr %81, i64 %80
  store ptr %82, ptr %12, align 8, !tbaa !8
  %83 = load i64, ptr %14, align 8, !tbaa !29
  %84 = sub i64 4, %83
  %85 = mul i64 4, %84
  %86 = load ptr, ptr %11, align 8, !tbaa !8
  %87 = getelementptr inbounds nuw double, ptr %86, i64 %85
  store ptr %87, ptr %11, align 8, !tbaa !8
  br label %30

88:                                               ; preds = %30
  br label %89

89:                                               ; preds = %88
  %90 = load i64, ptr %24, align 8, !tbaa !29
  %91 = add i64 %90, 1
  store i64 %91, ptr %24, align 8, !tbaa !29
  %92 = load i64, ptr %20, align 8, !tbaa !29
  %93 = load i64, ptr %15, align 8, !tbaa !29
  %94 = load i64, ptr %19, align 8, !tbaa !29
  %95 = mul nsw i64 %93, %94
  %96 = sub nsw i64 %92, %95
  %97 = load ptr, ptr %12, align 8, !tbaa !8
  %98 = getelementptr inbounds double, ptr %97, i64 %96
  store ptr %98, ptr %12, align 8, !tbaa !8
  %99 = load i64, ptr %15, align 8, !tbaa !29
  %100 = sub i64 4, %99
  %101 = mul i64 16, %100
  %102 = load ptr, ptr %11, align 8, !tbaa !8
  %103 = getelementptr inbounds nuw double, ptr %102, i64 %101
  store ptr %103, ptr %11, align 8, !tbaa !8
  br label %25

104:                                              ; preds = %25
  call void @llvm.lifetime.end.p0(i64 8, ptr %24) #5
  call void @llvm.lifetime.end.p0(i64 8, ptr %23) #5
  call void @llvm.lifetime.end.p0(i64 8, ptr %22) #5
  call void @llvm.lifetime.end.p0(i64 8, ptr %21) #5
  ret void
}

; Function Attrs: nounwind uwtable
define i64 @zfp_decode_partial_block_strided_double_4(ptr noundef %0, ptr noundef %1, i64 noundef %2, i64 noundef %3, i64 noundef %4, i64 noundef %5, i64 noundef %6, i64 noundef %7, i64 noundef %8, i64 noundef %9) #0 {
  %11 = alloca ptr, align 8
  %12 = alloca ptr, align 8
  %13 = alloca i64, align 8
  %14 = alloca i64, align 8
  %15 = alloca i64, align 8
  %16 = alloca i64, align 8
  %17 = alloca i64, align 8
  %18 = alloca i64, align 8
  %19 = alloca i64, align 8
  %20 = alloca i64, align 8
  %21 = alloca [256 x double], align 256
  %22 = alloca i64, align 8
  store ptr %0, ptr %11, align 8, !tbaa !4
  store ptr %1, ptr %12, align 8, !tbaa !8
  store i64 %2, ptr %13, align 8, !tbaa !29
  store i64 %3, ptr %14, align 8, !tbaa !29
  store i64 %4, ptr %15, align 8, !tbaa !29
  store i64 %5, ptr %16, align 8, !tbaa !29
  store i64 %6, ptr %17, align 8, !tbaa !29
  store i64 %7, ptr %18, align 8, !tbaa !29
  store i64 %8, ptr %19, align 8, !tbaa !29
  store i64 %9, ptr %20, align 8, !tbaa !29
  call void @llvm.lifetime.start.p0(i64 2048, ptr %21) #5
  call void @llvm.lifetime.start.p0(i64 8, ptr %22) #5
  %23 = load ptr, ptr %11, align 8, !tbaa !4
  %24 = getelementptr inbounds [256 x double], ptr %21, i64 0, i64 0
  %25 = call i64 @zfp_decode_block_double_4(ptr noundef %23, ptr noundef %24)
  store i64 %25, ptr %22, align 8, !tbaa !29
  %26 = getelementptr inbounds [256 x double], ptr %21, i64 0, i64 0
  %27 = load ptr, ptr %12, align 8, !tbaa !8
  %28 = load i64, ptr %13, align 8, !tbaa !29
  %29 = load i64, ptr %14, align 8, !tbaa !29
  %30 = load i64, ptr %15, align 8, !tbaa !29
  %31 = load i64, ptr %16, align 8, !tbaa !29
  %32 = load i64, ptr %17, align 8, !tbaa !29
  %33 = load i64, ptr %18, align 8, !tbaa !29
  %34 = load i64, ptr %19, align 8, !tbaa !29
  %35 = load i64, ptr %20, align 8, !tbaa !29
  call void @scatter_partial_double_4(ptr noundef %26, ptr noundef %27, i64 noundef %28, i64 noundef %29, i64 noundef %30, i64 noundef %31, i64 noundef %32, i64 noundef %33, i64 noundef %34, i64 noundef %35)
  %36 = load i64, ptr %22, align 8, !tbaa !29
  call void @llvm.lifetime.end.p0(i64 8, ptr %22) #5
  call void @llvm.lifetime.end.p0(i64 2048, ptr %21) #5
  ret i64 %36
}